target datalayout = "e-m:e-p270:32:32-p271:32:32-p272:64:64-i64:64-i128:128-f80:128-n8:16:32:64-S128"
target triple = "x86_64-pc-linux-gnu"

@.str.8 = private unnamed_addr constant [28 x i8] c"Couldn't send rumble packet\00", align 1

; Function Attrs: nounwind uwtable
define internal zeroext i1 @HIDAPI_DriverPS3SonySixaxis_SendJoystickEffect(ptr noundef %0, ptr noundef %1, ptr noundef %2, i32 noundef %3) #0 {
  %5 = alloca i1, align 1
  %6 = alloca ptr, align 8
  %7 = alloca ptr, align 8
  %8 = alloca ptr, align 8
  %9 = alloca i32, align 4
  %10 = alloca [49 x i8], align 16
  %11 = alloca i32, align 4
  %12 = alloca i32, align 4
  store ptr %0, ptr %6, align 8
  store ptr %1, ptr %7, align 8
  store ptr %2, ptr %8, align 8
  store i32 %3, ptr %9, align 4
  call void @llvm.lifetime.start.p0(i64 49, ptr %10) #7
  call void @llvm.lifetime.start.p0(i64 4, ptr %11) #7
  %13 = getelementptr inbounds [49 x i8], ptr %10, i64 0, i64 0
  call void @llvm.memset.p0.i64(ptr align 16 %13, i8 0, i64 49, i1 false)
  %14 = getelementptr inbounds [49 x i8], ptr %10, i64 0, i64 0
  store i8 0, ptr %14, align 16
  store i32 49, ptr %11, align 4
  %15 = load ptr, ptr %8, align 8
  %16 = load i32, ptr %9, align 4
  %17 = sext i32 %16 to i64
  %18 = icmp ult i64 49, %17
  br i1 %18, label %19, label %20

19:                                               ; preds = %4
  br label %23

20:                                               ; preds = %4
  %21 = load i32, ptr %9, align 4
  %22 = sext i32 %21 to i64
  br label %23

23:                                               ; preds = %20, %19
  %24 = phi i64 [ 49, %19 ], [ %22, %20 ]
  call void @llvm.memcpy.p0.p0.i64(ptr align 16 %10, ptr align 1 %15, i64 %24, i1 false)
  %25 = load ptr, ptr %6, align 8
  %26 = getelementptr inbounds [49 x i8], ptr %10, i64 0, i64 0
  %27 = load i32, ptr %11, align 4
  %28 = call i32 @SDL_HIDAPI_SendRumble(ptr noundef %25, ptr noundef %26, i32 noundef %27)
  %29 = load i32, ptr %11, align 4
  %30 = icmp ne i32 %28, %29
  br i1 %30, label %31, label %33

31:                                               ; preds = %23
  %32 = call zeroext i1 (ptr, ...) @SDL_SetError_REAL(ptr noundef @.str.8)
  store i1 %32, ptr %5, align 1
  store i32 1, ptr %12, align 4
  br label %34

33:                                               ; preds = %23
  store i1 true, ptr %5, align 1
  store i32 1, ptr %12, align 4
  br label %34

34:                                               ; preds = %33, %31
  call void @llvm.lifetime.end.p0(i64 4, ptr %11) #7
  call void @llvm.lifetime.end.p0(i64 49, ptr %10) #7
  %35 = load i1, ptr %5, align 1
  ret i1 %35
}