; Function Attrs: nounwind uwtable
define internal zeroext i1 @HIDAPI_DriverPS3SonySixaxis_SendJoystickEffect(ptr noundef %0, ptr readnone captures(none) %1, ptr noundef readonly captures(none) %2, i32 noundef %3) #0 {
  %5 = alloca [49 x i8], align 16
  call void @llvm.lifetime.start.p0(i64 49, ptr nonnull %5) #10
  %6 = tail call i32 @llvm.umin.i32(i32 %3, i32 49)
  %7 = zext nneg i32 %6 to i64
  call void @llvm.memset.p0.i64(ptr noundef nonnull align 16 dereferenceable(49) %5, i8 0, i64 49, i1 false)
  call void @llvm.memcpy.p0.p0.i64(ptr nonnull align 16 %5, ptr align 1 %2, i64 %7, i1 false)
  %8 = call i32 @SDL_HIDAPI_SendRumble(ptr noundef %0, ptr noundef nonnull %5, i32 noundef 49) #10
  %.not = icmp eq i32 %8, 49
  br i1 %.not, label %11, label %9

9:                                                ; preds = %4
  %10 = call zeroext i1 (ptr, ...) @SDL_SetError_REAL(ptr noundef nonnull @.str.8) #10
  br label %11

11:                                               ; preds = %4, %9
  %.0 = phi i1 [ %10, %9 ], [ true, %4 ]
  call void @llvm.lifetime.end.p0(i64 49, ptr nonnull %5) #10
  ret i1 %.0
}